; Function Attrs: mustprogress nounwind uwtable
define dso_local void @_ZN4llvm4yaml5Input8setErrorERKNS_5TwineE(ptr noundef nonnull align 8 captures(none) dereferenceable(682) initializes((96, 100), (104, 112)) %0, ptr noundef nonnull align 8 dereferenceable(34) %1) unnamed_addr #6 align 2 {
  %3 = getelementptr inbounds nuw i8, ptr %0, i64 672
  %4 = load ptr, ptr %3, align 8
  %5 = load ptr, ptr %4, align 8
  %6 = getelementptr inbounds nuw i8, ptr %0, i64 80
  %7 = load ptr, ptr %6, align 8
  tail call void @_ZN4llvm4yaml6Stream10printErrorEPNS0_4NodeERKNS_5TwineENS_9SourceMgr8DiagKindE(ptr noundef nonnull align 8 dereferenceable(16) %7, ptr noundef %5, ptr noundef nonnull align 8 dereferenceable(34) %1, i32 noundef 0) #32
  %8 = tail call noundef nonnull align 8 dereferenceable(8) ptr @_ZNSt3_V216generic_categoryEv() #33
  %9 = getelementptr inbounds nuw i8, ptr %0, i64 96
  store i32 22, ptr %9, align 8
  %.sroa.21.0..sroa_idx.i.i = getelementptr inbounds nuw i8, ptr %0, i64 104
  store ptr %8, ptr %.sroa.21.0..sroa_idx.i.i, align 8
  ret void
}